#include <math.h>
#include <stdio.h>
#include <stdlib.h>
#include <string.h>


struct student{
	char num[100];
	char name[100];
	char sex;
	int old;
	float score;
	char add[150];
	struct student *next;
};

void main()
{
	struct student *p1,*p2;
	int len=sizeof(struct student);
	p1=(struct student *)malloc(len);
	p1->next=NULL;
	scanf("%s",p1->num);
	while(strcmp(p1->num,"end")!=0){
		scanf("%s %c %d %g %s",p1->name,&p1->sex,&p1->old,&p1->score,p1->add);
		p2=p1;
		p1=(struct student *)malloc(len);
		p1->next=p2;
		scanf("%s",p1->num);
	}
	while(p1->next!=NULL){
		p1=p1->next;
		printf("%s %s %c %d %g %s\n",p1->num,p1->name,p1->sex,p1->old,p1->score,p1->add);
	}
}
