; ModuleID = '31/736.c'
source_filename = "31/736.c"
target datalayout = "e-m:e-p270:32:32-p271:32:32-p272:64:64-i64:64-f80:128-n8:16:32:64-S128"
target triple = "x86_64-pc-linux-gnu"

%struct.student = type { [100 x i8], [100 x i8], i8, i32, float, [150 x i8], %struct.student* }

@.str = private unnamed_addr constant [3 x i8] c"%s\00", align 1
@.str.1 = private unnamed_addr constant [4 x i8] c"end\00", align 1
@.str.2 = private unnamed_addr constant [15 x i8] c"%s %c %d %g %s\00", align 1
@.str.3 = private unnamed_addr constant [19 x i8] c"%s %s %c %d %g %s\0A\00", align 1

; Function Attrs: noinline nounwind uwtable
define dso_local void @main() #0 {
  %1 = alloca %struct.student*, align 8
  %2 = alloca %struct.student*, align 8
  %3 = alloca i32, align 4
  store i32 376, i32* %3, align 4
  %4 = load i32, i32* %3, align 4
  %5 = sext i32 %4 to i64
  %6 = call noalias i8* @malloc(i64 %5) #4
  %7 = bitcast i8* %6 to %struct.student*
  store %struct.student* %7, %struct.student** %1, align 8
  %8 = load %struct.student*, %struct.student** %1, align 8
  %9 = getelementptr inbounds %struct.student, %struct.student* %8, i32 0, i32 6
  store %struct.student* null, %struct.student** %9, align 8
  %10 = load %struct.student*, %struct.student** %1, align 8
  %11 = getelementptr inbounds %struct.student, %struct.student* %10, i32 0, i32 0
  %12 = getelementptr inbounds [100 x i8], [100 x i8]* %11, i64 0, i64 0
  %13 = call i32 (i8*, ...) @__isoc99_scanf(i8* getelementptr inbounds ([3 x i8], [3 x i8]* @.str, i64 0, i64 0), i8* %12)
  br label %14

14:                                               ; preds = %20, %0
  %15 = load %struct.student*, %struct.student** %1, align 8
  %16 = getelementptr inbounds %struct.student, %struct.student* %15, i32 0, i32 0
  %17 = getelementptr inbounds [100 x i8], [100 x i8]* %16, i64 0, i64 0
  %18 = call i32 @strcmp(i8* %17, i8* getelementptr inbounds ([4 x i8], [4 x i8]* @.str.1, i64 0, i64 0)) #5
  %19 = icmp ne i32 %18, 0
  br i1 %19, label %20, label %46

20:                                               ; preds = %14
  %21 = load %struct.student*, %struct.student** %1, align 8
  %22 = getelementptr inbounds %struct.student, %struct.student* %21, i32 0, i32 1
  %23 = getelementptr inbounds [100 x i8], [100 x i8]* %22, i64 0, i64 0
  %24 = load %struct.student*, %struct.student** %1, align 8
  %25 = getelementptr inbounds %struct.student, %struct.student* %24, i32 0, i32 2
  %26 = load %struct.student*, %struct.student** %1, align 8
  %27 = getelementptr inbounds %struct.student, %struct.student* %26, i32 0, i32 3
  %28 = load %struct.student*, %struct.student** %1, align 8
  %29 = getelementptr inbounds %struct.student, %struct.student* %28, i32 0, i32 4
  %30 = load %struct.student*, %struct.student** %1, align 8
  %31 = getelementptr inbounds %struct.student, %struct.student* %30, i32 0, i32 5
  %32 = getelementptr inbounds [150 x i8], [150 x i8]* %31, i64 0, i64 0
  %33 = call i32 (i8*, ...) @__isoc99_scanf(i8* getelementptr inbounds ([15 x i8], [15 x i8]* @.str.2, i64 0, i64 0), i8* %23, i8* %25, i32* %27, float* %29, i8* %32)
  %34 = load %struct.student*, %struct.student** %1, align 8
  store %struct.student* %34, %struct.student** %2, align 8
  %35 = load i32, i32* %3, align 4
  %36 = sext i32 %35 to i64
  %37 = call noalias i8* @malloc(i64 %36) #4
  %38 = bitcast i8* %37 to %struct.student*
  store %struct.student* %38, %struct.student** %1, align 8
  %39 = load %struct.student*, %struct.student** %2, align 8
  %40 = load %struct.student*, %struct.student** %1, align 8
  %41 = getelementptr inbounds %struct.student, %struct.student* %40, i32 0, i32 6
  store %struct.student* %39, %struct.student** %41, align 8
  %42 = load %struct.student*, %struct.student** %1, align 8
  %43 = getelementptr inbounds %struct.student, %struct.student* %42, i32 0, i32 0
  %44 = getelementptr inbounds [100 x i8], [100 x i8]* %43, i64 0, i64 0
  %45 = call i32 (i8*, ...) @__isoc99_scanf(i8* getelementptr inbounds ([3 x i8], [3 x i8]* @.str, i64 0, i64 0), i8* %44)
  br label %14

46:                                               ; preds = %14
  br label %47

47:                                               ; preds = %52, %46
  %48 = load %struct.student*, %struct.student** %1, align 8
  %49 = getelementptr inbounds %struct.student, %struct.student* %48, i32 0, i32 6
  %50 = load %struct.student*, %struct.student** %49, align 8
  %51 = icmp ne %struct.student* %50, null
  br i1 %51, label %52, label %77

52:                                               ; preds = %47
  %53 = load %struct.student*, %struct.student** %1, align 8
  %54 = getelementptr inbounds %struct.student, %struct.student* %53, i32 0, i32 6
  %55 = load %struct.student*, %struct.student** %54, align 8
  store %struct.student* %55, %struct.student** %1, align 8
  %56 = load %struct.student*, %struct.student** %1, align 8
  %57 = getelementptr inbounds %struct.student, %struct.student* %56, i32 0, i32 0
  %58 = getelementptr inbounds [100 x i8], [100 x i8]* %57, i64 0, i64 0
  %59 = load %struct.student*, %struct.student** %1, align 8
  %60 = getelementptr inbounds %struct.student, %struct.student* %59, i32 0, i32 1
  %61 = getelementptr inbounds [100 x i8], [100 x i8]* %60, i64 0, i64 0
  %62 = load %struct.student*, %struct.student** %1, align 8
  %63 = getelementptr inbounds %struct.student, %struct.student* %62, i32 0, i32 2
  %64 = load i8, i8* %63, align 8
  %65 = sext i8 %64 to i32
  %66 = load %struct.student*, %struct.student** %1, align 8
  %67 = getelementptr inbounds %struct.student, %struct.student* %66, i32 0, i32 3
  %68 = load i32, i32* %67, align 4
  %69 = load %struct.student*, %struct.student** %1, align 8
  %70 = getelementptr inbounds %struct.student, %struct.student* %69, i32 0, i32 4
  %71 = load float, float* %70, align 8
  %72 = fpext float %71 to double
  %73 = load %struct.student*, %struct.student** %1, align 8
  %74 = getelementptr inbounds %struct.student, %struct.student* %73, i32 0, i32 5
  %75 = getelementptr inbounds [150 x i8], [150 x i8]* %74, i64 0, i64 0
  %76 = call i32 (i8*, ...) @printf(i8* getelementptr inbounds ([19 x i8], [19 x i8]* @.str.3, i64 0, i64 0), i8* %58, i8* %61, i32 %65, i32 %68, double %72, i8* %75)
  br label %47

77:                                               ; preds = %47
  ret void
}

; Function Attrs: nounwind
declare dso_local noalias i8* @malloc(i64) #1

declare dso_local i32 @__isoc99_scanf(i8*, ...) #2

; Function Attrs: nounwind readonly
declare dso_local i32 @strcmp(i8*, i8*) #3

declare dso_local i32 @printf(i8*, ...) #2


!llvm.module.flags = !{!0}
!llvm.ident = !{!1}

!0 = !{i32 1, !"wchar_size", i32 4}
!1 = !{!"clang version 10.0.0-4ubuntu1 "}
